; Function Attrs: nounwind uwtable
define dso_local ptr @lua_topointer(ptr noundef readonly captures(none) %0, i32 noundef %1) local_unnamed_addr #1 {
  %3 = getelementptr inbounds nuw i8, ptr %0, i64 16
  %4 = load i64, ptr %3, align 8, !tbaa !21
  %5 = inttoptr i64 %4 to ptr
  %6 = icmp sgt i32 %1, 0
  br i1 %6, label %7, label %17

7:                                                ; preds = %2
  %8 = getelementptr inbounds nuw i8, ptr %0, i64 32
  %9 = load ptr, ptr %8, align 8, !tbaa !15
  %10 = zext nneg i32 %1 to i64
  %11 = getelementptr %union.TValue, ptr %9, i64 %10
  %12 = getelementptr i8, ptr %11, i64 -8
  %13 = getelementptr inbounds nuw i8, ptr %0, i64 40
  %14 = load ptr, ptr %13, align 8, !tbaa !14
  %15 = icmp ult ptr %12, %14
  %16 = getelementptr inbounds nuw i8, ptr %5, i64 248
  %spec.select = select i1 %15, ptr %12, ptr %16
  br label %index2adr.exit

17:                                               ; preds = %2
  %18 = icmp sgt i32 %1, -10000
  br i1 %18, label %19, label %24

19:                                               ; preds = %17
  %20 = getelementptr inbounds nuw i8, ptr %0, i64 40
  %21 = load ptr, ptr %20, align 8, !tbaa !14
  %22 = sext i32 %1 to i64
  %23 = getelementptr inbounds %union.TValue, ptr %21, i64 %22
  br label %index2adr.exit

24:                                               ; preds = %17
  switch i32 %1, label %32 [
    i32 -10002, label %25
    i32 -10000, label %30
  ]

25:                                               ; preds = %24
  %26 = getelementptr inbounds nuw i8, ptr %5, i64 232
  %27 = getelementptr inbounds nuw i8, ptr %0, i64 72
  %28 = load i64, ptr %27, align 8, !tbaa !24
  %29 = or i64 %28, -1688849860263936
  store i64 %29, ptr %26, align 8, !tbaa !17
  br label %index2adr.exit

30:                                               ; preds = %24
  %31 = getelementptr inbounds nuw i8, ptr %5, i64 272
  br label %index2adr.exit

32:                                               ; preds = %24
  %33 = getelementptr inbounds nuw i8, ptr %0, i64 32
  %34 = load ptr, ptr %33, align 8, !tbaa !15
  %35 = getelementptr inbounds i8, ptr %34, i64 -16
  %36 = load i64, ptr %35, align 8, !tbaa !17
  %37 = and i64 %36, 140737488355327
  %38 = inttoptr i64 %37 to ptr
  %39 = icmp eq i32 %1, -10001
  br i1 %39, label %40, label %45

40:                                               ; preds = %32
  %41 = getelementptr inbounds nuw i8, ptr %5, i64 232
  %42 = getelementptr inbounds nuw i8, ptr %38, i64 16
  %43 = load i64, ptr %42, align 8, !tbaa !17
  %44 = or i64 %43, -1688849860263936
  store i64 %44, ptr %41, align 8, !tbaa !17
  br label %index2adr.exit

45:                                               ; preds = %32
  %46 = sub nuw nsw i32 -10002, %1
  %47 = getelementptr inbounds nuw i8, ptr %38, i64 11
  %48 = load i8, ptr %47, align 1, !tbaa !17
  %49 = zext i8 %48 to i32
  %.not.i = icmp samesign ugt i32 %46, %49
  br i1 %.not.i, label %55, label %50

50:                                               ; preds = %45
  %51 = getelementptr inbounds nuw i8, ptr %38, i64 48
  %52 = sub nsw i32 -10003, %1
  %53 = sext i32 %52 to i64
  %54 = getelementptr inbounds [1 x %union.TValue], ptr %51, i64 0, i64 %53
  br label %index2adr.exit

55:                                               ; preds = %45
  %56 = getelementptr inbounds nuw i8, ptr %5, i64 248
  br label %index2adr.exit

index2adr.exit:                                   ; preds = %7, %19, %25, %30, %40, %50, %55
  %.0.i = phi ptr [ %23, %19 ], [ %26, %25 ], [ %31, %30 ], [ %41, %40 ], [ %54, %50 ], [ %56, %55 ], [ %spec.select, %7 ]
  %57 = tail call ptr @lj_obj_ptr(ptr noundef %5, ptr noundef %.0.i) #13
  ret ptr %57
}